target datalayout = "e-m:e-p270:32:32-p271:32:32-p272:64:64-i64:64-i128:128-f80:128-n8:16:32:64-S128"
target triple = "x86_64-pc-linux-gnu"

%"class.google::protobuf::io::CodedInputStream" = type { ptr, ptr, ptr, i32, i32, i32, i8, i8, i32, i32, i32, i32, i32, ptr, ptr }

; Function Attrs: mustprogress nounwind uwtable
define linkonce_odr noundef i32 @_ZN6google8protobuf8internal14WireFormatLite14GetTagWireTypeEj(i32 noundef %0) #5 comdat align 2 {
  %2 = alloca i32, align 4
  store i32 %0, ptr %2, align 4
  %3 = load i32, ptr %2, align 4
  %4 = and i32 %3, 7
  ret i32 %4
}

; Function Attrs: mustprogress nounwind uwtable
define linkonce_odr void @_ZN6google8protobuf2io16CodedInputStream7AdvanceEi(ptr noundef nonnull align 8 dereferenceable(80) %0, i32 noundef %1) #5 comdat align 2 {
  %3 = alloca ptr, align 8
  %4 = alloca i32, align 4
  store ptr %0, ptr %3, align 8
  store i32 %1, ptr %4, align 4
  %5 = load ptr, ptr %3, align 8
  %6 = load i32, ptr %4, align 4
  %7 = getelementptr inbounds %"class.google::protobuf::io::CodedInputStream", ptr %5, i32 0, i32 0
  %8 = load ptr, ptr %7, align 8
  %9 = sext i32 %6 to i64
  %10 = getelementptr inbounds i8, ptr %8, i64 %9
  store ptr %10, ptr %7, align 8
  ret void
}

; Function Attrs: mustprogress uwtable
define noundef zeroext i1 @_ZN6google8protobuf8internal14WireFormatLite11SkipMessageEPNS0_2io16CodedInputStreamE(ptr noundef %0) #4 align 2 {
  %2 = alloca i32, align 4
  %3 = alloca ptr, align 8
  %4 = alloca i32, align 4
  %5 = alloca ptr, align 8
  %6 = alloca i1, align 1
  %7 = alloca ptr, align 8
  %8 = alloca i32, align 4
  %9 = alloca i32, align 4
  store ptr %0, ptr %7, align 8
  br label %10

10:                                               ; preds = %48, %1
  %11 = load ptr, ptr %7, align 8
  store ptr %11, ptr %5, align 8
  %12 = load ptr, ptr %5, align 8
  store ptr %12, ptr %3, align 8
  %13 = load ptr, ptr %3, align 8
  store i32 0, ptr %4, align 4
  %14 = load ptr, ptr %13, align 8
  %15 = getelementptr inbounds %"class.google::protobuf::io::CodedInputStream", ptr %13, i32 0, i32 1
  %16 = load ptr, ptr %15, align 8
  %17 = icmp ult ptr %14, %16
  br i1 %17, label %18, label %27

18:                                               ; preds = %10
  %19 = load ptr, ptr %13, align 8
  %20 = load i8, ptr %19, align 1
  %21 = zext i8 %20 to i32
  store i32 %21, ptr %4, align 4
  %22 = load i32, ptr %4, align 4
  %23 = icmp ult i32 %22, 128
  br i1 %23, label %24, label %26

24:                                               ; preds = %18
  call void @_ZN6google8protobuf2io16CodedInputStream7AdvanceEi(ptr noundef nonnull align 8 dereferenceable(80) %13, i32 noundef 1)
  %25 = load i32, ptr %4, align 4
  store i32 %25, ptr %2, align 4
  br label %31

26:                                               ; preds = %18
  br label %27

27:                                               ; preds = %26, %10
  %28 = load i32, ptr %4, align 4
  %29 = call noundef i32 @_ZN6google8protobuf2io16CodedInputStream15ReadTagFallbackEj(ptr noundef nonnull align 8 dereferenceable(80) %13, i32 noundef %28)
  store i32 %29, ptr %4, align 4
  %30 = load i32, ptr %4, align 4
  store i32 %30, ptr %2, align 4
  br label %31

31:                                               ; preds = %27, %24
  %32 = load i32, ptr %2, align 4
  %33 = getelementptr inbounds %"class.google::protobuf::io::CodedInputStream", ptr %12, i32 0, i32 5
  store i32 %32, ptr %33, align 8
  store i32 %32, ptr %8, align 4
  %34 = load i32, ptr %8, align 4
  %35 = icmp eq i32 %34, 0
  br i1 %35, label %36, label %37

36:                                               ; preds = %31
  store i1 true, ptr %6, align 1
  br label %49

37:                                               ; preds = %31
  %38 = load i32, ptr %8, align 4
  %39 = call noundef i32 @_ZN6google8protobuf8internal14WireFormatLite14GetTagWireTypeEj(i32 noundef %38)
  store i32 %39, ptr %9, align 4
  %40 = load i32, ptr %9, align 4
  %41 = icmp eq i32 %40, 4
  br i1 %41, label %42, label %43

42:                                               ; preds = %37
  store i1 true, ptr %6, align 1
  br label %49

43:                                               ; preds = %37
  %44 = load ptr, ptr %7, align 8
  %45 = load i32, ptr %8, align 4
  %46 = call noundef zeroext i1 @_ZN6google8protobuf8internal14WireFormatLite9SkipFieldEPNS0_2io16CodedInputStreamEj(ptr noundef %44, i32 noundef %45)
  br i1 %46, label %48, label %47

47:                                               ; preds = %43
  store i1 false, ptr %6, align 1
  br label %49

48:                                               ; preds = %43
  br label %10, !llvm.loop !4

49:                                               ; preds = %47, %42, %36
  %50 = load i1, ptr %6, align 1
  ret i1 %50
}