; Function Attrs: mustprogress uwtable
define noundef zeroext i1 @_ZN6google8protobuf8internal14WireFormatLite11SkipMessageEPNS0_2io16CodedInputStreamE(ptr noundef %0) local_unnamed_addr #3 align 2 {
  %2 = getelementptr inbounds i8, ptr %0, i64 8
  %3 = getelementptr inbounds i8, ptr %0, i64 32
  br label %4

4:                                                ; preds = %20, %1
  %5 = load ptr, ptr %0, align 8
  %6 = load ptr, ptr %2, align 8
  %7 = icmp ult ptr %5, %6
  br i1 %7, label %8, label %14

8:                                                ; preds = %4
  %9 = load i8, ptr %5, align 1
  %10 = zext i8 %9 to i32
  %11 = icmp sgt i8 %9, -1
  br i1 %11, label %12, label %14

12:                                               ; preds = %8
  %13 = getelementptr inbounds i8, ptr %5, i64 1
  store ptr %13, ptr %0, align 8
  br label %16

14:                                               ; preds = %8, %4
  %.013 = phi i32 [ %10, %8 ], [ 0, %4 ]
  %15 = tail call noundef i32 @_ZN6google8protobuf2io16CodedInputStream15ReadTagFallbackEj(ptr noundef nonnull align 8 dereferenceable(80) %0, i32 noundef %.013)
  br label %16

16:                                               ; preds = %14, %12
  %.0 = phi i32 [ %10, %12 ], [ %15, %14 ]
  store i32 %.0, ptr %3, align 8
  %17 = icmp eq i32 %.0, 0
  %18 = and i32 %.0, 7
  %19 = icmp eq i32 %18, 4
  %or.cond = or i1 %17, %19
  br i1 %or.cond, label %22, label %20

20:                                               ; preds = %16
  %21 = tail call noundef zeroext i1 @_ZN6google8protobuf8internal14WireFormatLite9SkipFieldEPNS0_2io16CodedInputStreamEj(ptr noundef nonnull %0, i32 noundef %.0)
  br i1 %21, label %4, label %22, !llvm.loop !4

22:                                               ; preds = %20, %16
  ret i1 %or.cond
}